target datalayout = "e-m:e-p270:32:32-p271:32:32-p272:64:64-i64:64-i128:128-f80:128-n8:16:32:64-S128"
target triple = "x86_64-pc-linux-gnu"

%struct.OSQPVectorf_ = type { ptr, i64 }

; Function Attrs: nounwind uwtable
define void @OSQPVectorf_subvector_assign_scalar(ptr noundef %0, double noundef %1, i64 noundef %2, i64 noundef %3) #0 {
  %5 = alloca ptr, align 8
  %6 = alloca double, align 8
  %7 = alloca i64, align 8
  %8 = alloca i64, align 8
  %9 = alloca i64, align 8
  store ptr %0, ptr %5, align 8
  store double %1, ptr %6, align 8
  store i64 %2, ptr %7, align 8
  store i64 %3, ptr %8, align 8
  store i64 0, ptr %9, align 8
  br label %10

10:                                               ; preds = %23, %4
  %11 = load i64, ptr %9, align 8
  %12 = load i64, ptr %8, align 8
  %13 = icmp slt i64 %11, %12
  br i1 %13, label %14, label %26

14:                                               ; preds = %10
  %15 = load double, ptr %6, align 8
  %16 = load ptr, ptr %5, align 8
  %17 = getelementptr inbounds %struct.OSQPVectorf_, ptr %16, i32 0, i32 0
  %18 = load ptr, ptr %17, align 8
  %19 = load i64, ptr %7, align 8
  %20 = load i64, ptr %9, align 8
  %21 = add nsw i64 %19, %20
  %22 = getelementptr inbounds double, ptr %18, i64 %21
  store double %15, ptr %22, align 8
  br label %23

23:                                               ; preds = %14
  %24 = load i64, ptr %9, align 8
  %25 = add nsw i64 %24, 1
  store i64 %25, ptr %9, align 8
  br label %10, !llvm.loop !9

26:                                               ; preds = %10
  ret void
}