; Function Attrs: nofree norecurse nosync nounwind memory(write, argmem: readwrite, inaccessiblemem: none) uwtable
define void @OSQPVectorf_subvector_assign_scalar(ptr nocapture noundef readonly %0, double noundef %1, i64 noundef %2, i64 noundef %3) local_unnamed_addr #3 {
  %5 = icmp sgt i64 %3, 0
  br i1 %5, label %.lr.ph, label %._crit_edge

.lr.ph:                                           ; preds = %4, %.lr.ph
  %.06 = phi i64 [ %9, %.lr.ph ], [ 0, %4 ]
  %6 = load ptr, ptr %0, align 8
  %7 = getelementptr double, ptr %6, i64 %.06
  %8 = getelementptr double, ptr %7, i64 %2
  store double %1, ptr %8, align 8
  %9 = add nuw nsw i64 %.06, 1
  %exitcond.not = icmp eq i64 %9, %3
  br i1 %exitcond.not, label %._crit_edge, label %.lr.ph, !llvm.loop !9

._crit_edge:                                      ; preds = %.lr.ph, %4
  ret void
}